target datalayout = "e-m:e-p270:32:32-p271:32:32-p272:64:64-i64:64-i128:128-f80:128-n8:16:32:64-S128"
target triple = "x86_64-unknown-linux-gnu"

%"class.icu_75::UObject" = type { ptr }
%"class.icu_75::RuleChain" = type { ptr, %"class.icu_75::UnicodeString", ptr, ptr, %"class.icu_75::UnicodeString", %"class.icu_75::UnicodeString", i8, i8, i32 }
%"class.icu_75::UnicodeString" = type { %"class.icu_75::Replaceable", %"union.icu_75::UnicodeString::StackBufferOrFields" }
%"class.icu_75::Replaceable" = type { %"class.icu_75::UObject" }
%"union.icu_75::UnicodeString::StackBufferOrFields" = type { %struct.anon.0, [32 x i8] }
%struct.anon.0 = type { i16, i32, i32, ptr }

@_ZTVN6icu_759RuleChainE = unnamed_addr constant { [4 x ptr] } { [4 x ptr] [ptr null, ptr @_ZTIN6icu_759RuleChainE, ptr @_ZN6icu_759RuleChainD1Ev, ptr @_ZN6icu_759RuleChainD0Ev] }, align 8

; Function Attrs: mustprogress nounwind uwtable
define void @_ZN6icu_759RuleChainD2Ev(ptr noundef nonnull align 8 dereferenceable(224) %this) unnamed_addr #0 align 2 {
entry:
  %this.addr = alloca ptr, align 8
  store ptr %this, ptr %this.addr, align 8
  %this1 = load ptr, ptr %this.addr, align 8
  store ptr getelementptr inbounds ({ [4 x ptr] }, ptr @_ZTVN6icu_759RuleChainE, i32 0, i32 0, i32 2), ptr %this1, align 8
  %fNext = getelementptr inbounds %"class.icu_75::RuleChain", ptr %this1, i32 0, i32 2
  %0 = load ptr, ptr %fNext, align 8
  %isnull = icmp eq ptr %0, null
  br i1 %isnull, label %delete.end, label %delete.notnull

delete.notnull:                                   ; preds = %entry
  %vtable = load ptr, ptr %0, align 8
  %vfn = getelementptr inbounds ptr, ptr %vtable, i64 1
  %1 = load ptr, ptr %vfn, align 8
  call void %1(ptr noundef nonnull align 8 dereferenceable(224) %0) #13
  br label %delete.end

delete.end:                                       ; preds = %delete.notnull, %entry
  %ruleHeader = getelementptr inbounds %"class.icu_75::RuleChain", ptr %this1, i32 0, i32 3
  %2 = load ptr, ptr %ruleHeader, align 8
  %isnull2 = icmp eq ptr %2, null
  br i1 %isnull2, label %delete.end6, label %delete.notnull3

delete.notnull3:                                  ; preds = %delete.end
  %vtable4 = load ptr, ptr %2, align 8
  %vfn5 = getelementptr inbounds ptr, ptr %vtable4, i64 1
  %3 = load ptr, ptr %vfn5, align 8
  call void %3(ptr noundef nonnull align 8 dereferenceable(28) %2) #13
  br label %delete.end6

delete.end6:                                      ; preds = %delete.notnull3, %delete.end
  %fIntegerSamples = getelementptr inbounds %"class.icu_75::RuleChain", ptr %this1, i32 0, i32 5
  call void @_ZN6icu_7513UnicodeStringD1Ev(ptr noundef nonnull align 8 dereferenceable(64) %fIntegerSamples) #13
  %fDecimalSamples = getelementptr inbounds %"class.icu_75::RuleChain", ptr %this1, i32 0, i32 4
  call void @_ZN6icu_7513UnicodeStringD1Ev(ptr noundef nonnull align 8 dereferenceable(64) %fDecimalSamples) #13
  %fKeyword = getelementptr inbounds %"class.icu_75::RuleChain", ptr %this1, i32 0, i32 1
  call void @_ZN6icu_7513UnicodeStringD1Ev(ptr noundef nonnull align 8 dereferenceable(64) %fKeyword) #13
  ret void
}