; Function Attrs: mustprogress nounwind uwtable
define void @_ZN6icu_759RuleChainD2Ev(ptr noundef nonnull align 8 dereferenceable(224) %this) unnamed_addr #0 align 2 {
entry:
  store ptr getelementptr inbounds ({ [4 x ptr] }, ptr @_ZTVN6icu_759RuleChainE, i64 0, i32 0, i64 2), ptr %this, align 8
  %fNext = getelementptr inbounds i8, ptr %this, i64 72
  %0 = load ptr, ptr %fNext, align 8
  %isnull = icmp eq ptr %0, null
  br i1 %isnull, label %delete.end, label %delete.notnull

delete.notnull:                                   ; preds = %entry
  %vtable = load ptr, ptr %0, align 8
  %vfn = getelementptr inbounds i8, ptr %vtable, i64 8
  %1 = load ptr, ptr %vfn, align 8
  tail call void %1(ptr noundef nonnull align 8 dereferenceable(224) %0) #25
  br label %delete.end

delete.end:                                       ; preds = %delete.notnull, %entry
  %ruleHeader = getelementptr inbounds i8, ptr %this, i64 80
  %2 = load ptr, ptr %ruleHeader, align 8
  %isnull2 = icmp eq ptr %2, null
  br i1 %isnull2, label %delete.end6, label %delete.notnull3

delete.notnull3:                                  ; preds = %delete.end
  %vtable4 = load ptr, ptr %2, align 8
  %vfn5 = getelementptr inbounds i8, ptr %vtable4, i64 8
  %3 = load ptr, ptr %vfn5, align 8
  tail call void %3(ptr noundef nonnull align 8 dereferenceable(28) %2) #25
  br label %delete.end6

delete.end6:                                      ; preds = %delete.notnull3, %delete.end
  %fIntegerSamples = getelementptr inbounds i8, ptr %this, i64 152
  tail call void @_ZN6icu_7513UnicodeStringD1Ev(ptr noundef nonnull align 8 dereferenceable(64) %fIntegerSamples) #25
  %fDecimalSamples = getelementptr inbounds i8, ptr %this, i64 88
  tail call void @_ZN6icu_7513UnicodeStringD1Ev(ptr noundef nonnull align 8 dereferenceable(64) %fDecimalSamples) #25
  %fKeyword = getelementptr inbounds i8, ptr %this, i64 8
  tail call void @_ZN6icu_7513UnicodeStringD1Ev(ptr noundef nonnull align 8 dereferenceable(64) %fKeyword) #25
  ret void
}